target datalayout = "e-m:e-p270:32:32-p271:32:32-p272:64:64-i64:64-i128:128-f80:128-n8:16:32:64-S128"
target triple = "x86_64-pc-linux-gnu"

%struct.KINMemRec = type { double, ptr, ptr, double, double, i32, i32, i64, i64, i64, i64, i32, i32, i32, i32, i32, i32, i32, i32, i32, double, double, double, double, double, double, double, double, double, i32, double, i64, i64, i64, i64, i64, i64, i64, ptr, ptr, ptr, ptr, ptr, ptr, ptr, ptr, ptr, ptr, ptr, ptr, ptr, ptr, ptr, ptr, ptr, ptr, i64, i32, i32, i64, i64, i64, i64, ptr, ptr, ptr, ptr, i32, ptr, double, double, double, double, double, i32, double, double, double, i32, ptr, ptr, ptr, ptr, ptr, ptr }
%struct.KINDlsMemRec = type { i32, i64, i64, i64, i64, i32, ptr, ptr, ptr, ptr, ptr, ptr, i64, i64, i64 }

@.str.5 = private unnamed_addr constant [7 x i8] c"KINSOL\00", align 1
@.str.6 = private unnamed_addr constant [12 x i8] c"kinBandInit\00", align 1
@.str.7 = private unnamed_addr constant [85 x i8] c"Unable to find user's Linear Jacobian, which is required for the KIN_PICARD Strategy\00", align 1

; Function Attrs: nounwind uwtable
define internal i32 @kinBandInit(ptr noundef %0) #0 {
  %2 = alloca i32, align 4
  %3 = alloca ptr, align 8
  %4 = alloca ptr, align 8
  %5 = alloca i32, align 4
  store ptr %0, ptr %3, align 8, !tbaa !9
  call void @llvm.lifetime.start.p0(i64 8, ptr %4) #5
  %6 = load ptr, ptr %3, align 8, !tbaa !9
  %7 = getelementptr inbounds nuw %struct.KINMemRec, ptr %6, i32 0, i32 68
  %8 = load ptr, ptr %7, align 8, !tbaa !47
  store ptr %8, ptr %4, align 8, !tbaa !28
  %9 = load ptr, ptr %4, align 8, !tbaa !28
  %10 = getelementptr inbounds nuw %struct.KINDlsMemRec, ptr %9, i32 0, i32 12
  store i64 0, ptr %10, align 8, !tbaa !48
  %11 = load ptr, ptr %4, align 8, !tbaa !28
  %12 = getelementptr inbounds nuw %struct.KINDlsMemRec, ptr %11, i32 0, i32 13
  store i64 0, ptr %12, align 8, !tbaa !49
  %13 = load ptr, ptr %4, align 8, !tbaa !28
  %14 = getelementptr inbounds nuw %struct.KINDlsMemRec, ptr %13, i32 0, i32 5
  %15 = load i32, ptr %14, align 8, !tbaa !35
  %16 = icmp ne i32 %15, 0
  br i1 %16, label %17, label %23

17:                                               ; preds = %1
  %18 = load ptr, ptr %4, align 8, !tbaa !28
  %19 = getelementptr inbounds nuw %struct.KINDlsMemRec, ptr %18, i32 0, i32 7
  store ptr @kinDlsBandDQJac, ptr %19, align 8, !tbaa !36
  %20 = load ptr, ptr %3, align 8, !tbaa !9
  %21 = load ptr, ptr %4, align 8, !tbaa !28
  %22 = getelementptr inbounds nuw %struct.KINDlsMemRec, ptr %21, i32 0, i32 8
  store ptr %20, ptr %22, align 8, !tbaa !37
  br label %29

23:                                               ; preds = %1
  %24 = load ptr, ptr %3, align 8, !tbaa !9
  %25 = getelementptr inbounds nuw %struct.KINMemRec, ptr %24, i32 0, i32 2
  %26 = load ptr, ptr %25, align 8, !tbaa !50
  %27 = load ptr, ptr %4, align 8, !tbaa !28
  %28 = getelementptr inbounds nuw %struct.KINDlsMemRec, ptr %27, i32 0, i32 8
  store ptr %26, ptr %28, align 8, !tbaa !37
  br label %29

29:                                               ; preds = %23, %17
  %30 = load ptr, ptr %3, align 8, !tbaa !9
  %31 = getelementptr inbounds nuw %struct.KINMemRec, ptr %30, i32 0, i32 5
  %32 = load i32, ptr %31, align 8, !tbaa !51
  %33 = icmp eq i32 %32, 2
  br i1 %33, label %34, label %41

34:                                               ; preds = %29
  %35 = load ptr, ptr %4, align 8, !tbaa !28
  %36 = getelementptr inbounds nuw %struct.KINDlsMemRec, ptr %35, i32 0, i32 5
  %37 = load i32, ptr %36, align 8, !tbaa !35
  %38 = icmp ne i32 %37, 0
  br i1 %38, label %39, label %41

39:                                               ; preds = %34
  %40 = load ptr, ptr %3, align 8, !tbaa !9
  call void (ptr, i32, ptr, ptr, ptr, ...) @KINProcessError(ptr noundef %40, i32 noundef -2, ptr noundef @.str.5, ptr noundef @.str.6, ptr noundef @.str.7)
  store i32 -2, ptr %2, align 4
  store i32 1, ptr %5, align 4
  br label %44

41:                                               ; preds = %34, %29
  %42 = load ptr, ptr %4, align 8, !tbaa !28
  %43 = getelementptr inbounds nuw %struct.KINDlsMemRec, ptr %42, i32 0, i32 14
  store i64 0, ptr %43, align 8, !tbaa !38
  store i32 0, ptr %2, align 4
  store i32 1, ptr %5, align 4
  br label %44

44:                                               ; preds = %41, %39
  call void @llvm.lifetime.end.p0(i64 8, ptr %4) #5
  %45 = load i32, ptr %2, align 4
  ret i32 %45
}