; Function Attrs: nounwind uwtable
define internal range(i32 -2, 1) i32 @kinBandInit(ptr noundef %0) #0 {
  %2 = getelementptr inbounds nuw i8, ptr %0, i64 496
  %3 = load ptr, ptr %2, align 8, !tbaa !39
  %4 = getelementptr inbounds nuw i8, ptr %3, i64 96
  %5 = getelementptr inbounds nuw i8, ptr %3, i64 40
  tail call void @llvm.memset.p0.i64(ptr noundef nonnull align 8 dereferenceable(16) %4, i8 0, i64 16, i1 false)
  %6 = load i32, ptr %5, align 8, !tbaa !29
  %.not = icmp eq i32 %6, 0
  %7 = getelementptr inbounds nuw i8, ptr %3, i64 64
  br i1 %.not, label %8, label %.thread

8:                                                ; preds = %1
  %9 = getelementptr inbounds nuw i8, ptr %0, i64 16
  %10 = load ptr, ptr %9, align 8, !tbaa !40
  store ptr %10, ptr %7, align 8, !tbaa !41
  br label %15

.thread:                                          ; preds = %1
  %11 = getelementptr inbounds nuw i8, ptr %3, i64 56
  store ptr @kinDlsBandDQJac, ptr %11, align 8, !tbaa !42
  store ptr %0, ptr %7, align 8, !tbaa !41
  %12 = getelementptr inbounds nuw i8, ptr %0, i64 40
  %13 = load i32, ptr %12, align 8, !tbaa !43
  %14 = icmp eq i32 %13, 2
  br i1 %14, label %.thread14, label %15

.thread14:                                        ; preds = %.thread
  tail call void (ptr, i32, ptr, ptr, ptr, ...) @KINProcessError(ptr noundef nonnull %0, i32 noundef -2, ptr noundef nonnull @.str.5, ptr noundef nonnull @.str.6, ptr noundef nonnull @.str.7) #5
  br label %17

15:                                               ; preds = %8, %.thread
  %16 = getelementptr inbounds nuw i8, ptr %3, i64 112
  store i64 0, ptr %16, align 8, !tbaa !30
  br label %17

17:                                               ; preds = %15, %.thread14
  %.0 = phi i32 [ -2, %.thread14 ], [ 0, %15 ]
  ret i32 %.0
}